Certificate:
    Data:
        Version: 3 (0x2)
        Serial Number: 1 (0x1)
    Signature Algorithm: sha256WithRSAEncryption
        Issuer: C=US, ST=CA, L=SanFrancisco, O=OpenVPN, OU=changeme, CN=changeme/name=changeme/emailAddress=mail@host.domain
        Validity
            Not Before: Apr  2 07:30:42 2018 GMT
            Not After : Mar 30 07:30:42 2028 GMT
        Subject: C=US, ST=CA, L=SanFrancisco, O=OpenVPN, OU=changeme, CN=changeme/name=changeme/emailAddress=mail@host.domain
        Subject Public Key Info:
            Public Key Algorithm: rsaEncryption
                Public-Key: (4096 bit)
                Modulus:
                    00:aa:6f:ee:fa:ff:f3:22:fe:11:4a:22:5a:2b:34:
                    cd:f5:79:f0:eb:64:2b:bf:9c:0c:8b:b4:f1:d0:0d:
                    6f:25:ce:b7:21:00:93:95:c3:f9:d8:1c:51:77:75:
                    e9:d2:25:d9:ee:b6:d3:ac:59:81:16:ce:58:74:f0:
                    f4:3b:28:e0:6c:b3:f1:6b:84:44:4d:4f:37:63:70:
                    4c:3e:3d:a3:eb:e5:62:88:fb:e4:cb:f2:70:f9:4f:
                    2d:d0:11:21:d5:8e:ee:d5:36:eb:35:42:8b:d1:1d:
                    97:49:08:70:32:b7:07:5c:7c:25:76:e9:07:f2:b0:
                    b1:80:83:a0:f7:66:03:f2:6f:aa:ef:21:1a:8d:47:
                    3f:bf:15:00:29:47:87:2a:8a:8d:0a:f0:aa:15:b3:
                    6b:0f:45:8a:8c:b0:b7:f3:77:d1:07:35:57:95:81:
                    b0:06:d5:29:71:f4:cb:c1:d4:72:3b:c6:5a:f2:3d:
                    be:e6:25:6c:f1:7e:c9:3a:6f:5f:ee:8d:fd:26:9c:
                    76:4a:2a:11:c8:2c:eb:6a:7c:90:b4:3b:a7:6a:be:
                    4b:e6:25:8a:81:64:d3:42:4b:22:17:65:12:25:1f:
                    da:c8:17:0d:d6:7f:38:6a:92:e7:65:47:05:5f:95:
                    4e:af:37:2c:60:62:cd:6c:77:7d:0e:a4:ed:fb:3d:
                    04:65:63:31:d1:d4:c9:f9:fb:f7:1f:e2:c3:41:74:
                    fc:4c:58:71:5e:a9:f2:dc:00:31:e5:ca:09:fc:fc:
                    bd:2a:a4:1b:39:40:0c:c7:34:63:f9:88:2e:15:8e:
                    37:37:ee:23:73:9a:d9:56:02:0f:8f:18:b8:6e:97:
                    c7:98:25:87:86:44:3f:93:a1:f0:1a:1b:ef:c8:bd:
                    28:d0:0f:e4:1f:f0:8e:9c:90:f9:b9:d4:1c:c2:c7:
                    07:fd:3b:26:16:45:0b:57:78:70:18:39:2f:e4:06:
                    13:26:74:a0:2f:49:69:03:c8:89:35:ee:f8:f7:c9:
                    66:ac:fe:12:88:e3:ec:3c:ae:1f:f6:e2:c8:62:13:
                    da:94:80:8e:65:db:b7:29:92:8b:ff:8f:c0:64:ea:
                    59:70:da:28:b1:38:b4:0c:1e:96:5b:bf:41:be:5d:
                    2f:19:62:c9:a9:b2:1f:d2:67:68:a1:bd:a2:89:7b:
                    f3:e6:b0:09:7c:0b:53:6b:66:3f:6c:63:af:3d:96:
                    c1:eb:3f:4b:94:8c:6f:ac:30:69:d9:11:92:c8:fe:
                    39:2a:38:d2:12:80:5a:dd:aa:1f:f0:6e:82:ea:70:
                    d7:b8:e6:aa:ad:8d:d7:64:88:6f:2a:68:a8:10:81:
                    f4:a3:c2:e5:e0:23:93:7b:3a:f8:00:6e:df:24:ea:
                    c8:82:91
                Exponent: 65537 (0x10001)
        X509v3 extensions:
            X509v3 Basic Constraints: 
                CA:FALSE
            Netscape Cert Type: 
                SSL Server
            Netscape Comment: 
                Easy-RSA Generated Server Certificate
            X509v3 Subject Key Identifier: 
                41:62:CE:54:04:E7:09:6D:B0:DB:B6:41:46:83:99:4F:1D:FE:1B:EC
            X509v3 Authority Key Identifier: 
                keyid:6E:9F:D9:8E:ED:A6:67:6A:26:5A:A3:00:A8:07:AB:16:EB:B7:0F:A2
                DirName:/C=US/ST=CA/L=SanFrancisco/O=OpenVPN/OU=changeme/CN=changeme/name=changeme/emailAddress=mail@host.domain
                serial:8B:DA:78:84:F0:72:AF:56

            X509v3 Extended Key Usage: 
                TLS Web Server Authentication
            X509v3 Key Usage: 
                Digital Signature, Key Encipherment
    Signature Algorithm: sha256WithRSAEncryption
         62:84:b1:2b:01:ae:d5:df:6b:a6:47:f9:ce:70:c1:d2:56:cb:
         e2:16:31:d9:23:39:2a:08:9e:93:75:e1:a6:d4:c2:a0:29:54:
         2a:70:e2:1c:59:5f:c6:1b:f5:e7:2c:ef:69:1c:fe:ae:b1:9a:
         68:90:01:e8:42:50:10:2b:f0:18:6f:a7:9d:74:f6:5b:27:e0:
         56:7c:7b:12:7a:cd:40:04:ba:24:26:29:2b:4c:d5:ec:4b:d0:
         57:ca:40:5c:db:4b:65:de:a7:22:32:96:11:04:d6:b3:b7:a0:
         c6:43:e0:7c:04:9b:52:85:1d:45:b8:cb:58:e1:55:0d:f4:4b:
         d5:da:6e:d7:05:a0:0c:74:e0:5a:fc:79:90:a6:81:0f:06:44:
         9c:00:ea:7e:75:22:a0:1c:65:f0:ae:dc:fe:34:dd:89:de:75:
         ad:6a:c2:28:0b:56:5d:84:f0:8e:bd:c1:d5:e3:3b:ac:e9:6d:
         43:61:ed:58:28:a6:9e:6d:48:a0:0c:a4:bf:a1:0d:54:dd:1f:
         cb:2b:2e:e3:e9:f3:ac:94:fc:e9:ef:53:b7:ca:38:d1:b8:71:
         e9:fe:38:68:af:5e:7b:8e:b4:8c:56:2e:4e:45:f9:04:74:bf:
         a8:e3:3e:70:c1:62:78:2d:01:f2:41:af:fd:14:d7:6e:ec:82:
         1e:1a:01:0c:45:ee:7d:a4:cb:85:76:b9:29:9a:3b:a4:be:87:
         a0:06:16:0b:e1:87:71:89:e2:24:5a:62:8a:2b:f8:eb:0e:77:
         53:ff:93:57:ec:95:7a:dd:b5:54:c0:4a:6d:94:77:04:00:ac:
         70:9f:d2:b8:e8:f2:3d:22:70:70:bd:e9:db:88:a0:d6:87:c5:
         31:3d:5d:9d:4f:78:22:52:18:23:b8:eb:46:bd:49:7a:b7:5e:
         cd:c4:32:dc:06:5d:e5:e7:08:7b:c2:9c:cd:e5:91:70:ad:4b:
         5f:b5:1a:72:b8:d4:21:66:d7:00:41:0d:ba:52:ff:15:45:24:
         3a:96:96:30:2b:db:73:60:be:61:87:05:78:90:85:74:4d:12:
         a6:96:4e:de:7a:33:35:34:97:c3:f6:65:9d:5e:31:41:33:88:
         31:f2:e2:cf:b2:b6:da:68:01:a6:97:d6:10:0b:f7:98:70:72:
         0b:29:8b:59:0b:43:11:36:b7:2a:0c:41:48:17:cc:f1:d0:5e:
         80:d4:fe:a5:5d:9f:fe:7a:7d:f1:82:35:4f:20:23:1c:9b:b0:
         4c:e6:d8:a7:a5:3e:2c:e3:dd:c0:b1:d0:45:9d:84:54:b7:64:
         d4:a3:f7:b5:5e:00:e0:5e:bd:72:20:a7:20:70:93:6b:90:1e:
         27:18:35:af:ab:58:40:4e
-----BEGIN CERTIFICATE-----
MIIHJzCCBQ+gAwIBAgIBATANBgkqhkiG9w0BAQsFADCBnTELMAkGA1UEBhMCVVMx
CzAJBgNVBAgTAkNBMRUwEwYDVQQHEwxTYW5GcmFuY2lzY28xEDAOBgNVBAoTB09w
ZW5WUE4xETAPBgNVBAsTCGNoYW5nZW1lMREwDwYDVQQDEwhjaGFuZ2VtZTERMA8G
A1UEKRMIY2hhbmdlbWUxHzAdBgkqhkiG9w0BCQEWEG1haWxAaG9zdC5kb21haW4w
HhcNMTgwNDAyMDczMDQyWhcNMjgwMzMwMDczMDQyWjCBnTELMAkGA1UEBhMCVVMx
CzAJBgNVBAgTAkNBMRUwEwYDVQQHEwxTYW5GcmFuY2lzY28xEDAOBgNVBAoTB09w
ZW5WUE4xETAPBgNVBAsTCGNoYW5nZW1lMREwDwYDVQQDEwhjaGFuZ2VtZTERMA8G
A1UEKRMIY2hhbmdlbWUxHzAdBgkqhkiG9w0BCQEWEG1haWxAaG9zdC5kb21haW4w
ggIiMA0GCSqGSIb3DQEBAQUAA4ICDwAwggIKAoICAQCqb+76//Mi/hFKIlorNM31
efDrZCu/nAyLtPHQDW8lzrchAJOVw/nYHFF3denSJdnuttOsWYEWzlh08PQ7KOBs
s/FrhERNTzdjcEw+PaPr5WKI++TL8nD5Ty3QESHVju7VNus1QovRHZdJCHAytwdc
fCV26QfysLGAg6D3ZgPyb6rvIRqNRz+/FQApR4cqio0K8KoVs2sPRYqMsLfzd9EH
NVeVgbAG1Slx9MvB1HI7xlryPb7mJWzxfsk6b1/ujf0mnHZKKhHILOtqfJC0O6dq
vkvmJYqBZNNCSyIXZRIlH9rIFw3WfzhqkudlRwVflU6vNyxgYs1sd30OpO37PQRl
YzHR1Mn5+/cf4sNBdPxMWHFeqfLcADHlygn8/L0qpBs5QAzHNGP5iC4Vjjc37iNz
mtlWAg+PGLhul8eYJYeGRD+TofAaG+/IvSjQD+Qf8I6ckPm51BzCxwf9OyYWRQtX
eHAYOS/kBhMmdKAvSWkDyIk17vj3yWas/hKI4+w8rh/24shiE9qUgI5l27cpkov/
j8Bk6llw2iixOLQMHpZbv0G+XS8ZYsmpsh/SZ2ihvaKJe/PmsAl8C1NrZj9sY689
lsHrP0uUjG+sMGnZEZLI/jkqONISgFrdqh/wboLqcNe45qqtjddkiG8qaKgQgfSj
wuXgI5N7OvgAbt8k6siCkQIDAQABo4IBbjCCAWowCQYDVR0TBAIwADARBglghkgB
hvhCAQEEBAMCBkAwNAYJYIZIAYb4QgENBCcWJUVhc3ktUlNBIEdlbmVyYXRlZCBT
ZXJ2ZXIgQ2VydGlmaWNhdGUwHQYDVR0OBBYEFEFizlQE5wltsNu2QUaDmU8d/hvs
MIHSBgNVHSMEgcowgceAFG6f2Y7tpmdqJlqjAKgHqxbrtw+ioYGjpIGgMIGdMQsw
CQYDVQQGEwJVUzELMAkGA1UECBMCQ0ExFTATBgNVBAcTDFNhbkZyYW5jaXNjbzEQ
MA4GA1UEChMHT3BlblZQTjERMA8GA1UECxMIY2hhbmdlbWUxETAPBgNVBAMTCGNo
YW5nZW1lMREwDwYDVQQpEwhjaGFuZ2VtZTEfMB0GCSqGSIb3DQEJARYQbWFpbEBo
b3N0LmRvbWFpboIJAIvaeITwcq9WMBMGA1UdJQQMMAoGCCsGAQUFBwMBMAsGA1Ud
DwQEAwIFoDANBgkqhkiG9w0BAQsFAAOCAgEAYoSxKwGu1d9rpkf5znDB0lbL4hYx
2SM5Kgiek3XhptTCoClUKnDiHFlfxhv15yzvaRz+rrGaaJAB6EJQECvwGG+nnXT2
WyfgVnx7EnrNQAS6JCYpK0zV7EvQV8pAXNtLZd6nIjKWEQTWs7egxkPgfASbUoUd
RbjLWOFVDfRL1dpu1wWgDHTgWvx5kKaBDwZEnADqfnUioBxl8K7c/jTdid51rWrC
KAtWXYTwjr3B1eM7rOltQ2HtWCimnm1IoAykv6ENVN0fyysu4+nzrJT86e9Tt8o4
0bhx6f44aK9ee460jFYuTkX5BHS/qOM+cMFieC0B8kGv/RTXbuyCHhoBDEXufaTL
hXa5KZo7pL6HoAYWC+GHcYniJFpiiiv46w53U/+TV+yVet21VMBKbZR3BACscJ/S
uOjyPSJwcL3p24ig1ofFMT1dnU94IlIYI7jrRr1JerdezcQy3AZd5ecIe8KczeWR
cK1LX7UacrjUIWbXAEENulL/FUUkOpaWMCvbc2C+YYcFeJCFdE0SppZO3nozNTSX
w/ZlnV4xQTOIMfLiz7K22mgBppfWEAv3mHByCymLWQtDETa3KgxBSBfM8dBegNT+
pV2f/np98YI1TyAjHJuwTObYp6U+LOPdwLHQRZ2EVLdk1KP3tV4A4F69ciCnIHCT
a5AeJxg1r6tYQE4=
-----END CERTIFICATE-----
